target datalayout = "e-m:e-p270:32:32-p271:32:32-p272:64:64-i64:64-i128:128-f80:128-n8:16:32:64-S128"
target triple = "x86_64-pc-linux-gnu"

%struct.ident_t = type { i32, i32, i32, i32, ptr }
%"class.std::vector" = type { %"struct.std::_Vector_base" }
%"struct.std::_Vector_base" = type { %"struct.std::_Vector_base<long, std::allocator<long>>::_Vector_impl" }
%"struct.std::_Vector_base<long, std::allocator<long>>::_Vector_impl" = type { %"struct.std::_Vector_base<long, std::allocator<long>>::_Vector_impl_data" }
%"struct.std::_Vector_base<long, std::allocator<long>>::_Vector_impl_data" = type { ptr, ptr, ptr }
%"struct.faiss::Index" = type <{ ptr, i32, [4 x i8], i64, i8, i8, [2 x i8], i32, float, [4 x i8] }>
%"struct.faiss::IndexIVF" = type <{ %"struct.faiss::Index.base", [4 x i8], %"struct.faiss::IndexIVFInterface", ptr, i8, [7 x i8], i64, i32, i32, %"struct.faiss::DirectMap", i8, [7 x i8] }>
%"struct.faiss::Index.base" = type <{ ptr, i32, [4 x i8], i64, i8, i8, [2 x i8], i32, float }>
%"struct.faiss::IndexIVFInterface" = type { ptr, %"struct.faiss::Level1Quantizer", i64, i64 }
%"struct.faiss::Level1Quantizer" = type { ptr, i64, i8, i8, [6 x i8], %"struct.faiss::ClusteringParameters", ptr }
%"struct.faiss::ClusteringParameters" = type <{ i32, i32, i8, i8, i8, i8, i8, [3 x i8], i32, i32, i32, [4 x i8], i64, i8, i8, [6 x i8] }>
%"struct.faiss::DirectMap" = type { i32, %"class.std::vector", %"class.std::unordered_map" }
%"class.std::unordered_map" = type { %"class.std::_Hashtable" }
%"class.std::_Hashtable" = type { ptr, i64, %"struct.std::__detail::_Hash_node_base", i64, %"struct.std::__detail::_Prime_rehash_policy", ptr }
%"struct.std::__detail::_Hash_node_base" = type { ptr }
%"struct.std::__detail::_Prime_rehash_policy" = type { float, i64 }

@3 = private unnamed_addr constant %struct.ident_t { i32 0, i32 514, i32 0, i32 22, ptr @0 }, align 8

; Function Attrs: inlinehint mustprogress nounwind uwtable
define linkonce_odr noundef i64 @_ZN5faiss9lo_offsetEm(i64 noundef %0) #5 comdat {
  %2 = alloca i64, align 8
  store i64 %0, ptr %2, align 8, !tbaa !9
  %3 = load i64, ptr %2, align 8, !tbaa !9
  %4 = and i64 %3, 4294967295
  ret i64 %4
}

; Function Attrs: inlinehint mustprogress nounwind uwtable
define linkonce_odr noundef i64 @_ZN5faiss9lo_listnoEm(i64 noundef %0) #5 comdat {
  %2 = alloca i64, align 8
  store i64 %0, ptr %2, align 8, !tbaa !9
  %3 = load i64, ptr %2, align 8, !tbaa !9
  %4 = lshr i64 %3, 32
  ret i64 %4
}

; Function Attrs: noinline norecurse nounwind uwtable
define internal void @_ZNK5faiss8IndexIVF22search_and_reconstructElPKflPfPlS3_PKNS_16SearchParametersE.omp_outlined(ptr noalias noundef %0, ptr noalias noundef %1, ptr noundef nonnull align 8 dereferenceable(8) %2, ptr noundef nonnull align 8 dereferenceable(8) %3, ptr noundef nonnull align 8 dereferenceable(8) %4, ptr noundef nonnull align 8 dereferenceable(8) %5, ptr noundef %6) #22 personality ptr @__gxx_personality_v0 {
  %8 = alloca ptr, align 8
  %9 = alloca ptr, align 8
  %10 = alloca ptr, align 8
  %11 = alloca ptr, align 8
  %12 = alloca ptr, align 8
  %13 = alloca ptr, align 8
  %14 = alloca ptr, align 8
  %15 = alloca i64, align 8
  %16 = alloca i64, align 8
  %17 = alloca i64, align 8
  %18 = alloca i64, align 8
  %19 = alloca i64, align 8
  %20 = alloca i64, align 8
  %21 = alloca i64, align 8
  %22 = alloca i32, align 4
  %23 = alloca i64, align 8
  %24 = alloca i64, align 8
  %25 = alloca ptr, align 8
  %26 = alloca i32, align 4
  %27 = alloca i32, align 4
  store ptr %0, ptr %8, align 8, !tbaa !296
  store ptr %1, ptr %9, align 8, !tbaa !296
  store ptr %2, ptr %10, align 8, !tbaa !13
  store ptr %3, ptr %11, align 8, !tbaa !13
  store ptr %4, ptr %12, align 8, !tbaa !274
  store ptr %5, ptr %13, align 8, !tbaa !332
  store ptr %6, ptr %14, align 8, !tbaa !45
  %28 = load ptr, ptr %10, align 8, !tbaa !13
  %29 = load ptr, ptr %11, align 8, !tbaa !13
  %30 = load ptr, ptr %12, align 8, !tbaa !274
  %31 = load ptr, ptr %13, align 8, !tbaa !332
  %32 = load ptr, ptr %14, align 8, !tbaa !45
  call void @llvm.lifetime.start.p0(i64 8, ptr %15) #20
  call void @llvm.lifetime.start.p0(i64 8, ptr %16) #20
  %33 = load i64, ptr %29, align 8, !tbaa !9
  %34 = load i64, ptr %28, align 8, !tbaa !9
  %35 = mul nsw i64 %33, %34
  store i64 %35, ptr %16, align 8, !tbaa !9
  call void @llvm.lifetime.start.p0(i64 8, ptr %17) #20
  %36 = load i64, ptr %16, align 8, !tbaa !9
  %37 = sub nsw i64 %36, 0
  %38 = sdiv i64 %37, 1
  %39 = sub nsw i64 %38, 1
  store i64 %39, ptr %17, align 8, !tbaa !9
  call void @llvm.lifetime.start.p0(i64 8, ptr %18) #20
  store i64 0, ptr %18, align 8, !tbaa !9
  call void @llvm.lifetime.end.p0(i64 8, ptr %18) #20
  %40 = load i64, ptr %16, align 8, !tbaa !9
  %41 = icmp slt i64 0, %40
  br i1 %41, label %42, label %123

42:                                               ; preds = %7
  call void @llvm.lifetime.start.p0(i64 8, ptr %19) #20
  store i64 0, ptr %19, align 8, !tbaa !9
  call void @llvm.lifetime.start.p0(i64 8, ptr %20) #20
  %43 = load i64, ptr %17, align 8, !tbaa !9
  store i64 %43, ptr %20, align 8, !tbaa !9
  call void @llvm.lifetime.start.p0(i64 8, ptr %21) #20
  store i64 1, ptr %21, align 8, !tbaa !9
  call void @llvm.lifetime.start.p0(i64 4, ptr %22) #20
  store i32 0, ptr %22, align 4, !tbaa !78
  call void @llvm.lifetime.start.p0(i64 8, ptr %23) #20
  %44 = load ptr, ptr %8, align 8
  %45 = load i32, ptr %44, align 4, !tbaa !78
  call void @__kmpc_for_static_init_8(ptr @3, i32 %45, i32 34, ptr %22, ptr %19, ptr %20, ptr %21, i64 1, i64 1)
  %46 = load i64, ptr %20, align 8, !tbaa !9
  %47 = load i64, ptr %17, align 8, !tbaa !9
  %48 = icmp sgt i64 %46, %47
  br i1 %48, label %49, label %51

49:                                               ; preds = %42
  %50 = load i64, ptr %17, align 8, !tbaa !9
  br label %53

51:                                               ; preds = %42
  %52 = load i64, ptr %20, align 8, !tbaa !9
  br label %53

53:                                               ; preds = %51, %49
  %54 = phi i64 [ %50, %49 ], [ %52, %51 ]
  store i64 %54, ptr %20, align 8, !tbaa !9
  %55 = load i64, ptr %19, align 8, !tbaa !9
  store i64 %55, ptr %15, align 8, !tbaa !9
  br label %56

56:                                               ; preds = %116, %53
  %57 = load i64, ptr %15, align 8, !tbaa !9
  %58 = load i64, ptr %20, align 8, !tbaa !9
  %59 = icmp sle i64 %57, %58
  br i1 %59, label %61, label %60

60:                                               ; preds = %56
  br label %119

61:                                               ; preds = %56
  %62 = load i64, ptr %15, align 8, !tbaa !9
  %63 = mul nsw i64 %62, 1
  %64 = add nsw i64 0, %63
  store i64 %64, ptr %23, align 8, !tbaa !9
  call void @llvm.lifetime.start.p0(i64 8, ptr %24) #20
  %65 = load ptr, ptr %30, align 8, !tbaa !13
  %66 = load i64, ptr %23, align 8, !tbaa !9
  %67 = getelementptr inbounds i64, ptr %65, i64 %66
  %68 = load i64, ptr %67, align 8, !tbaa !9
  store i64 %68, ptr %24, align 8, !tbaa !9
  call void @llvm.lifetime.start.p0(i64 8, ptr %25) #20
  %69 = load ptr, ptr %31, align 8, !tbaa !15
  %70 = load i64, ptr %23, align 8, !tbaa !9
  %71 = getelementptr inbounds nuw %"struct.faiss::Index", ptr %32, i32 0, i32 1
  %72 = load i32, ptr %71, align 8, !tbaa !52
  %73 = sext i32 %72 to i64
  %74 = mul nsw i64 %70, %73
  %75 = getelementptr inbounds float, ptr %69, i64 %74
  store ptr %75, ptr %25, align 8, !tbaa !15
  %76 = load i64, ptr %24, align 8, !tbaa !9
  %77 = icmp slt i64 %76, 0
  br i1 %77, label %78, label %84

78:                                               ; preds = %61
  %79 = load ptr, ptr %25, align 8, !tbaa !15
  %80 = getelementptr inbounds nuw %"struct.faiss::Index", ptr %32, i32 0, i32 1
  %81 = load i32, ptr %80, align 8, !tbaa !52
  %82 = sext i32 %81 to i64
  %83 = mul i64 4, %82
  call void @llvm.memset.p0.i64(ptr align 4 %79, i8 -1, i64 %83, i1 false)
  br label %114

84:                                               ; preds = %61
  call void @llvm.lifetime.start.p0(i64 4, ptr %26) #20
  %85 = load i64, ptr %24, align 8, !tbaa !9
  %86 = call noundef i64 @_ZN5faiss9lo_listnoEm(i64 noundef %85)
  %87 = trunc i64 %86 to i32
  store i32 %87, ptr %26, align 4, !tbaa !78
  call void @llvm.lifetime.start.p0(i64 4, ptr %27) #20
  %88 = load i64, ptr %24, align 8, !tbaa !9
  %89 = call noundef i64 @_ZN5faiss9lo_offsetEm(i64 noundef %88)
  %90 = trunc i64 %89 to i32
  store i32 %90, ptr %27, align 4, !tbaa !78
  %91 = getelementptr inbounds nuw %"struct.faiss::IndexIVF", ptr %32, i32 0, i32 3
  %92 = load ptr, ptr %91, align 8, !tbaa !98
  %93 = load i32, ptr %26, align 4, !tbaa !78
  %94 = sext i32 %93 to i64
  %95 = load i32, ptr %27, align 4, !tbaa !78
  %96 = sext i32 %95 to i64
  %97 = load ptr, ptr %92, align 8, !tbaa !23
  %98 = getelementptr inbounds ptr, ptr %97, i64 7
  %99 = load ptr, ptr %98, align 8
  %100 = invoke noundef i64 %99(ptr noundef nonnull align 8 dereferenceable(25) %92, i64 noundef %94, i64 noundef %96)
          to label %101 unwind label %124

101:                                              ; preds = %84
  %102 = load ptr, ptr %30, align 8, !tbaa !13
  %103 = load i64, ptr %23, align 8, !tbaa !9
  %104 = getelementptr inbounds i64, ptr %102, i64 %103
  store i64 %100, ptr %104, align 8, !tbaa !9
  %105 = load i32, ptr %26, align 4, !tbaa !78
  %106 = sext i32 %105 to i64
  %107 = load i32, ptr %27, align 4, !tbaa !78
  %108 = sext i32 %107 to i64
  %109 = load ptr, ptr %25, align 8, !tbaa !15
  %110 = load ptr, ptr %32, align 8, !tbaa !23
  %111 = getelementptr inbounds ptr, ptr %110, i64 31
  %112 = load ptr, ptr %111, align 8
  invoke void %112(ptr noundef nonnull align 8 dereferenceable(265) %32, i64 noundef %106, i64 noundef %108, ptr noundef %109)
          to label %113 unwind label %124

113:                                              ; preds = %101
  call void @llvm.lifetime.end.p0(i64 4, ptr %27) #20
  call void @llvm.lifetime.end.p0(i64 4, ptr %26) #20
  br label %114

114:                                              ; preds = %113, %78
  call void @llvm.lifetime.end.p0(i64 8, ptr %25) #20
  call void @llvm.lifetime.end.p0(i64 8, ptr %24) #20
  br label %115

115:                                              ; preds = %114
  br label %116

116:                                              ; preds = %115
  %117 = load i64, ptr %15, align 8, !tbaa !9
  %118 = add nsw i64 %117, 1
  store i64 %118, ptr %15, align 8, !tbaa !9
  br label %56

119:                                              ; preds = %60
  br label %120

120:                                              ; preds = %119
  %121 = load ptr, ptr %8, align 8
  %122 = load i32, ptr %121, align 4, !tbaa !78
  call void @__kmpc_for_static_fini(ptr @3, i32 %122)
  call void @llvm.lifetime.end.p0(i64 8, ptr %23) #20
  call void @llvm.lifetime.end.p0(i64 4, ptr %22) #20
  call void @llvm.lifetime.end.p0(i64 8, ptr %21) #20
  call void @llvm.lifetime.end.p0(i64 8, ptr %20) #20
  call void @llvm.lifetime.end.p0(i64 8, ptr %19) #20
  br label %123

123:                                              ; preds = %120, %7
  call void @llvm.lifetime.end.p0(i64 8, ptr %17) #20
  call void @llvm.lifetime.end.p0(i64 8, ptr %16) #20
  call void @llvm.lifetime.end.p0(i64 8, ptr %15) #20
  ret void

124:                                              ; preds = %101, %84
  %125 = landingpad { ptr, i32 }
          catch ptr null
  %126 = extractvalue { ptr, i32 } %125, 0
  call void @__clang_call_terminate(ptr %126) #26
  unreachable
}