; Function Attrs: noinline norecurse nounwind uwtable
define internal void @_ZNK5faiss8IndexIVF22search_and_reconstructElPKflPfPlS3_PKNS_16SearchParametersE.omp_outlined(ptr noalias noundef readonly captures(none) %0, ptr noalias readnone captures(none) %1, ptr noundef nonnull readonly align 8 captures(none) dereferenceable(8) %2, ptr noundef nonnull readonly align 8 captures(none) dereferenceable(8) %3, ptr noundef nonnull readonly align 8 captures(none) dereferenceable(8) %4, ptr noundef nonnull readonly align 8 captures(none) dereferenceable(8) %5, ptr noundef %6) #29 personality ptr @__gxx_personality_v0 {
  %8 = alloca i64, align 8
  %9 = alloca i64, align 8
  %10 = alloca i64, align 8
  %11 = alloca i32, align 4
  %12 = load i64, ptr %3, align 8, !tbaa !19
  %13 = load i64, ptr %2, align 8, !tbaa !19
  %14 = mul nsw i64 %13, %12
  %15 = icmp sgt i64 %14, 0
  br i1 %15, label %16, label %54

16:                                               ; preds = %7
  %17 = add nsw i64 %14, -1
  call void @llvm.lifetime.start.p0(i64 8, ptr nonnull %8) #27
  store i64 0, ptr %8, align 8, !tbaa !19
  call void @llvm.lifetime.start.p0(i64 8, ptr nonnull %9) #27
  store i64 %17, ptr %9, align 8, !tbaa !19
  call void @llvm.lifetime.start.p0(i64 8, ptr nonnull %10) #27
  store i64 1, ptr %10, align 8, !tbaa !19
  call void @llvm.lifetime.start.p0(i64 4, ptr nonnull %11) #27
  store i32 0, ptr %11, align 4, !tbaa !78
  %18 = load i32, ptr %0, align 4, !tbaa !78
  call void @__kmpc_for_static_init_8(ptr nonnull @3, i32 %18, i32 34, ptr nonnull %11, ptr nonnull %8, ptr nonnull %9, ptr nonnull %10, i64 1, i64 1)
  %19 = load i64, ptr %9, align 8, !tbaa !19
  %20 = call i64 @llvm.smin.i64(i64 %19, i64 %17)
  store i64 %20, ptr %9, align 8, !tbaa !19
  %21 = load i64, ptr %8, align 8, !tbaa !19
  %.not28 = icmp sgt i64 %21, %20
  br i1 %.not28, label %._crit_edge, label %.lr.ph

.lr.ph:                                           ; preds = %16
  %22 = getelementptr inbounds nuw i8, ptr %6, i64 8
  %23 = getelementptr inbounds nuw i8, ptr %6, i64 144
  br label %24

24:                                               ; preds = %.lr.ph, %51
  %.029 = phi i64 [ %21, %.lr.ph ], [ %52, %51 ]
  %25 = load ptr, ptr %4, align 8, !tbaa !61
  %26 = getelementptr inbounds i64, ptr %25, i64 %.029
  %27 = load i64, ptr %26, align 8, !tbaa !19
  %28 = load ptr, ptr %5, align 8, !tbaa !59
  %29 = load i32, ptr %22, align 8, !tbaa !36
  %30 = sext i32 %29 to i64
  %31 = mul nsw i64 %.029, %30
  %32 = getelementptr inbounds float, ptr %28, i64 %31
  %33 = icmp slt i64 %27, 0
  br i1 %33, label %34, label %36

34:                                               ; preds = %24
  %35 = shl nsw i64 %30, 2
  call void @llvm.memset.p0.i64(ptr align 4 %32, i8 -1, i64 %35, i1 false)
  br label %51

36:                                               ; preds = %24
  %37 = load ptr, ptr %23, align 8, !tbaa !97
  %38 = lshr i64 %27, 32
  %39 = shl i64 %27, 32
  %40 = ashr exact i64 %39, 32
  %41 = load ptr, ptr %37, align 8, !tbaa !14
  %42 = getelementptr inbounds nuw i8, ptr %41, i64 56
  %43 = load ptr, ptr %42, align 8
  %44 = invoke noundef i64 %43(ptr noundef nonnull align 8 dereferenceable(25) %37, i64 noundef %38, i64 noundef %40)
          to label %45 unwind label %55

45:                                               ; preds = %36
  %46 = load ptr, ptr %4, align 8, !tbaa !61
  %47 = getelementptr inbounds i64, ptr %46, i64 %.029
  store i64 %44, ptr %47, align 8, !tbaa !19
  %48 = load ptr, ptr %6, align 8, !tbaa !14
  %49 = getelementptr inbounds nuw i8, ptr %48, i64 248
  %50 = load ptr, ptr %49, align 8
  invoke void %50(ptr noundef nonnull align 8 dereferenceable(265) %6, i64 noundef %38, i64 noundef %40, ptr noundef %32)
          to label %51 unwind label %55

51:                                               ; preds = %45, %34
  %52 = add nsw i64 %.029, 1
  %53 = load i64, ptr %9, align 8, !tbaa !19
  %.not.not = icmp slt i64 %.029, %53
  br i1 %.not.not, label %24, label %._crit_edge

._crit_edge:                                      ; preds = %51, %16
  call void @__kmpc_for_static_fini(ptr nonnull @3, i32 %18)
  call void @llvm.lifetime.end.p0(i64 4, ptr nonnull %11) #27
  call void @llvm.lifetime.end.p0(i64 8, ptr nonnull %10) #27
  call void @llvm.lifetime.end.p0(i64 8, ptr nonnull %9) #27
  call void @llvm.lifetime.end.p0(i64 8, ptr nonnull %8) #27
  br label %54

54:                                               ; preds = %._crit_edge, %7
  ret void

55:                                               ; preds = %45, %36
  %56 = landingpad { ptr, i32 }
          catch ptr null
  %57 = extractvalue { ptr, i32 } %56, 0
  call void @__clang_call_terminate(ptr %57) #41
  unreachable
}